; Function Attrs: nounwind uwtable
define range(i64 -1, -9223372036854775808) i64 @H5Freopen(i64 noundef %0) local_unnamed_addr #0 {
  %2 = alloca %struct.H5CX_node_t, align 8
  call void @llvm.lifetime.start.p0(i64 480, ptr nonnull %2) #6
  call void @llvm.memset.p0.i64(ptr noundef nonnull align 8 dereferenceable(480) %2, i8 0, i64 480, i1 false)
  %3 = load i8, ptr @H5_libinit_g, align 1, !tbaa !3, !range !7, !noundef !8
  %4 = trunc nuw i8 %3 to i1
  %5 = load i8, ptr @H5_libterm_g, align 1, !range !7
  %6 = trunc nuw i8 %5 to i1
  %7 = select i1 %4, i1 true, i1 %6
  br i1 %7, label %15, label %8, !prof !9

8:                                                ; preds = %1
  %9 = tail call i32 @H5_init_library() #6
  %10 = icmp slt i32 %9, 0
  br i1 %10, label %11, label %._crit_edge, !prof !10

._crit_edge:                                      ; preds = %8
  %.pre = load i8, ptr @H5_libterm_g, align 1, !range !7
  br label %15

11:                                               ; preds = %8
  %12 = load i64, ptr @H5E_FUNC_g, align 8, !tbaa !11
  %13 = load i64, ptr @H5E_CANTINIT_g, align 8, !tbaa !11
  %14 = tail call i32 (ptr, ptr, i32, i64, i64, ptr, ...) @H5E_printf_stack(ptr noundef nonnull @.str, ptr noundef nonnull @__func__.H5Freopen, i32 noundef 1445, i64 noundef %12, i64 noundef %13, ptr noundef nonnull @.str.1) #6
  br label %.thread23

15:                                               ; preds = %._crit_edge, %1
  %16 = phi i8 [ %.pre, %._crit_edge ], [ %5, %1 ]
  %17 = load i8, ptr @H5F_init_g, align 1, !tbaa !3, !range !7, !noundef !8
  %18 = trunc nuw i8 %17 to i1
  %19 = trunc nuw i8 %16 to i1
  %20 = select i1 %18, i1 true, i1 %19
  br i1 %20, label %28, label %21, !prof !9

21:                                               ; preds = %15
  store i8 1, ptr @H5F_init_g, align 1, !tbaa !3
  %22 = tail call i32 @H5F__init_package() #6
  %23 = icmp slt i32 %22, 0
  br i1 %23, label %24, label %28, !prof !13

24:                                               ; preds = %21
  store i8 0, ptr @H5F_init_g, align 1, !tbaa !3
  %25 = load i64, ptr @H5E_FUNC_g, align 8, !tbaa !11
  %26 = load i64, ptr @H5E_CANTINIT_g, align 8, !tbaa !11
  %27 = tail call i32 (ptr, ptr, i32, i64, i64, ptr, ...) @H5E_printf_stack(ptr noundef nonnull @.str, ptr noundef nonnull @__func__.H5Freopen, i32 noundef 1445, i64 noundef %25, i64 noundef %26, ptr noundef nonnull @.str.2) #6
  br label %.thread23

28:                                               ; preds = %15, %21
  %29 = call i32 @H5CX_push(ptr noundef nonnull %2) #6
  %30 = icmp slt i32 %29, 0
  br i1 %30, label %31, label %35, !prof !10

31:                                               ; preds = %28
  %32 = load i64, ptr @H5E_FUNC_g, align 8, !tbaa !11
  %33 = load i64, ptr @H5E_CANTSET_g, align 8, !tbaa !11
  %34 = call i32 (ptr, ptr, i32, i64, i64, ptr, ...) @H5E_printf_stack(ptr noundef nonnull @.str, ptr noundef nonnull @__func__.H5Freopen, i32 noundef 1445, i64 noundef %32, i64 noundef %33, ptr noundef nonnull @.str.3) #6
  br label %.thread23

35:                                               ; preds = %28
  %36 = call i32 @H5E_clear_stack() #6
  %37 = call fastcc i64 @H5F__reopen_api_common(i64 noundef %0, ptr noundef null)
  %38 = icmp slt i64 %37, 0
  br i1 %38, label %39, label %43, !prof !14

39:                                               ; preds = %35
  %40 = load i64, ptr @H5E_FILE_g, align 8, !tbaa !11
  %41 = load i64, ptr @H5E_CANTOPENFILE_g, align 8, !tbaa !11
  %42 = call i32 (ptr, ptr, i32, i64, i64, ptr, ...) @H5E_printf_stack(ptr noundef nonnull @.str, ptr noundef nonnull @__func__.H5Freopen, i32 noundef 1449, i64 noundef %40, i64 noundef %41, ptr noundef nonnull @.str.76) #6
  br label %.thread29

43:                                               ; preds = %35
  %44 = call ptr @H5VL_vol_object(i64 noundef %37) #6
  %45 = icmp eq ptr %44, null
  br i1 %45, label %46, label %50, !prof !14

46:                                               ; preds = %43
  %47 = load i64, ptr @H5E_FILE_g, align 8, !tbaa !11
  %48 = load i64, ptr @H5E_CANTGET_g, align 8, !tbaa !11
  %49 = call i32 (ptr, ptr, i32, i64, i64, ptr, ...) @H5E_printf_stack(ptr noundef nonnull @.str, ptr noundef nonnull @__func__.H5Freopen, i32 noundef 1453, i64 noundef %47, i64 noundef %48, ptr noundef nonnull @.str.77) #6
  br label %.thread29

50:                                               ; preds = %43
  %51 = call fastcc i32 @H5F__post_open_api_common(ptr noundef %44, ptr noundef null)
  %52 = icmp slt i32 %51, 0
  br i1 %52, label %53, label %58, !prof !14

53:                                               ; preds = %50
  %54 = load i64, ptr @H5E_FILE_g, align 8, !tbaa !11
  %55 = load i64, ptr @H5E_CANTINIT_g, align 8, !tbaa !11
  %56 = call i32 (ptr, ptr, i32, i64, i64, ptr, ...) @H5E_printf_stack(ptr noundef nonnull @.str, ptr noundef nonnull @__func__.H5Freopen, i32 noundef 1457, i64 noundef %54, i64 noundef %55, ptr noundef nonnull @.str.24) #6
  br label %.thread29

.thread29:                                        ; preds = %53, %46, %39
  %57 = call i32 @H5CX_pop(i1 noundef zeroext true) #6
  br label %.thread23

58:                                               ; preds = %50
  %59 = call i32 @H5CX_pop(i1 noundef zeroext true) #6
  br label %61

.thread23:                                        ; preds = %31, %24, %11, %.thread29
  %60 = call i32 @H5E_dump_api_stack() #6
  br label %61

61:                                               ; preds = %58, %.thread23
  %.0121826 = phi i64 [ -1, %.thread23 ], [ %37, %58 ]
  call void @llvm.lifetime.end.p0(i64 480, ptr nonnull %2) #6
  ret i64 %.0121826
}